; Function Attrs: mustprogress nofree norecurse nosync nounwind willreturn memory(argmem: readwrite) uwtable
define internal void @ff_tx_fft2_ns_double_c(ptr readnone captures(none) %0, ptr noundef writeonly captures(none) initializes((0, 32)) %1, ptr noundef readonly captures(none) %2, i64 %3) #8 {
  %5 = load double, ptr %2, align 8, !tbaa !50
  %6 = getelementptr inbounds nuw i8, ptr %2, i64 16
  %7 = load double, ptr %6, align 8, !tbaa !50
  %8 = fsub nsz double %5, %7
  %9 = fadd nsz double %5, %7
  store double %9, ptr %1, align 8, !tbaa !50
  %10 = getelementptr inbounds nuw i8, ptr %2, i64 8
  %11 = load double, ptr %10, align 8, !tbaa !52
  %12 = getelementptr inbounds nuw i8, ptr %2, i64 24
  %13 = load double, ptr %12, align 8, !tbaa !52
  %14 = fsub nsz double %11, %13
  %15 = fadd nsz double %11, %13
  %16 = getelementptr inbounds nuw i8, ptr %1, i64 8
  store double %15, ptr %16, align 8, !tbaa !52
  %17 = getelementptr inbounds nuw i8, ptr %1, i64 16
  store double %8, ptr %17, align 8, !tbaa !27
  %.sroa.4.0..sroa_idx = getelementptr inbounds nuw i8, ptr %1, i64 24
  store double %14, ptr %.sroa.4.0..sroa_idx, align 8, !tbaa !27
  ret void
}